; Function Attrs: mustprogress nofree norecurse nounwind willreturn uwtable
define hidden noundef zeroext i1 @_ZNK5XHeap5is_inEm(ptr nocapture noundef nonnull readonly align 64 dereferenceable(4088) %0, i64 noundef %1) local_unnamed_addr #3 align 2 {
  %3 = load i64, ptr @XAddressOffsetMask, align 8
  %4 = xor i64 %3, -1
  %5 = and i64 %4, %1
  %6 = tail call range(i64 0, 65) i64 @llvm.ctpop.i64(i64 %5)
  %or.cond.i = icmp eq i64 %6, 1
  br i1 %or.cond.i, label %_ZN8XAddress5is_inEm.exit, label %_ZNK5XPage5is_inEm.exit

_ZN8XAddress5is_inEm.exit:                        ; preds = %2
  %7 = load i64, ptr @XAddressMetadataMask, align 8
  %8 = load i64, ptr @XAddressMetadataFinalizable, align 8
  %9 = xor i64 %8, -1
  %10 = and i64 %7, %9
  %11 = and i64 %10, %1
  %.not8 = icmp eq i64 %11, 0
  br i1 %.not8, label %_ZNK5XPage5is_inEm.exit, label %12

12:                                               ; preds = %_ZN8XAddress5is_inEm.exit
  %13 = and i64 %3, %1
  %14 = lshr i64 %13, 21
  %15 = getelementptr inbounds i8, ptr %0, i64 800
  %16 = load ptr, ptr %15, align 32
  %17 = getelementptr inbounds ptr, ptr %16, i64 %14
  %18 = load ptr, ptr %17, align 8
  %.not = icmp eq ptr %18, null
  br i1 %.not, label %_ZNK5XPage5is_inEm.exit, label %19

19:                                               ; preds = %12
  %20 = getelementptr inbounds i8, ptr %18, i64 8
  %21 = load i64, ptr %20, align 8
  %.not.i = icmp ult i64 %13, %21
  br i1 %.not.i, label %_ZNK5XPage5is_inEm.exit, label %22

22:                                               ; preds = %19
  %23 = getelementptr inbounds i8, ptr %18, i64 24
  %24 = load volatile i64, ptr %23, align 8
  %25 = icmp ult i64 %13, %24
  br label %_ZNK5XPage5is_inEm.exit

_ZNK5XPage5is_inEm.exit:                          ; preds = %2, %22, %19, %_ZN8XAddress5is_inEm.exit, %12
  %.0 = phi i1 [ false, %12 ], [ false, %_ZN8XAddress5is_inEm.exit ], [ false, %19 ], [ %25, %22 ], [ false, %2 ]
  ret i1 %.0
}